target datalayout = "e-m:e-p270:32:32-p271:32:32-p272:64:64-i64:64-i128:128-f80:128-n8:16:32:64-S128"
target triple = "x86_64-unknown-linux-gnu"

%"class.std::_Function_base" = type { %"union.std::_Any_data", ptr }
%"union.std::_Any_data" = type { %"union.std::_Nocopy_types" }
%"union.std::_Nocopy_types" = type { { i64, i64 } }
%"class.std::function.44" = type { %"class.std::_Function_base", ptr }
%class.anon = type { ptr, ptr }

; Function Attrs: mustprogress nounwind uwtable
define linkonce_odr noundef ptr @_ZNSt9_Any_data9_M_accessEv(ptr noundef nonnull align 8 dereferenceable(16) %this) #2 comdat align 2 {
entry:
  %this.addr = alloca ptr, align 8
  store ptr %this, ptr %this.addr, align 8
  %this1 = load ptr, ptr %this.addr, align 8
  %arrayidx = getelementptr inbounds [16 x i8], ptr %this1, i64 0, i64 0
  ret ptr %arrayidx
}

; Function Attrs: mustprogress nounwind uwtable
define internal void @"_ZNSt14_Function_base13_Base_managerIZNK8facebook5velox6memory15MemoryReclaimer16reclaimableBytesERKNS3_10MemoryPoolERmE3$_0E9_M_createIS9_EEvRSt9_Any_dataOT_St17integral_constantIbLb1EE"(ptr noundef nonnull align 8 dereferenceable(16) %__dest, ptr noundef nonnull align 8 dereferenceable(16) %__f) #2 align 2 {
entry:
  %__dest.addr = alloca ptr, align 8
  %__f.addr = alloca ptr, align 8
  store ptr %__dest, ptr %__dest.addr, align 8
  store ptr %__f, ptr %__f.addr, align 8
  %0 = load ptr, ptr %__dest.addr, align 8
  %call = call noundef ptr @_ZNSt9_Any_data9_M_accessEv(ptr noundef nonnull align 8 dereferenceable(16) %0) #9
  %1 = load ptr, ptr %__f.addr, align 8
  call void @llvm.memcpy.p0.p0.i64(ptr align 8 %call, ptr align 8 %1, i64 16, i1 false)
  ret void
}

; Function Attrs: mustprogress nounwind uwtable
define linkonce_odr void @_ZNSt14_Function_baseD2Ev(ptr noundef nonnull align 8 dereferenceable(24) %this) unnamed_addr #2 comdat align 2 personality ptr @__gxx_personality_v0 {
entry:
  %this.addr = alloca ptr, align 8
  store ptr %this, ptr %this.addr, align 8
  %this1 = load ptr, ptr %this.addr, align 8
  %_M_manager = getelementptr inbounds %"class.std::_Function_base", ptr %this1, i32 0, i32 1
  %0 = load ptr, ptr %_M_manager, align 8
  %tobool = icmp ne ptr %0, null
  br i1 %tobool, label %if.then, label %if.end

if.then:                                          ; preds = %entry
  %_M_manager2 = getelementptr inbounds %"class.std::_Function_base", ptr %this1, i32 0, i32 1
  %1 = load ptr, ptr %_M_manager2, align 8
  %_M_functor = getelementptr inbounds %"class.std::_Function_base", ptr %this1, i32 0, i32 0
  %_M_functor3 = getelementptr inbounds %"class.std::_Function_base", ptr %this1, i32 0, i32 0
  %call = invoke noundef zeroext i1 %1(ptr noundef nonnull align 8 dereferenceable(16) %_M_functor, ptr noundef nonnull align 8 dereferenceable(16) %_M_functor3, i32 noundef 3)
          to label %invoke.cont unwind label %terminate.lpad

invoke.cont:                                      ; preds = %if.then
  br label %if.end

if.end:                                           ; preds = %invoke.cont, %entry
  ret void

terminate.lpad:                                   ; preds = %if.then
  %2 = landingpad { ptr, i32 }
          catch ptr null
  %3 = extractvalue { ptr, i32 } %2, 0
  call void @__clang_call_terminate(ptr %3) #21
  unreachable
}

; Function Attrs: mustprogress nounwind uwtable
define internal void @"_ZNSt14_Function_base13_Base_managerIZNK8facebook5velox6memory15MemoryReclaimer16reclaimableBytesERKNS3_10MemoryPoolERmE3$_0E15_M_init_functorIS9_EEvRSt9_Any_dataOT_"(ptr noundef nonnull align 8 dereferenceable(16) %__functor, ptr noundef nonnull align 8 dereferenceable(16) %__f) #2 align 2 personality ptr @__gxx_personality_v0 {
entry:
  %__functor.addr = alloca ptr, align 8
  %__f.addr = alloca ptr, align 8
  store ptr %__functor, ptr %__functor.addr, align 8
  store ptr %__f, ptr %__f.addr, align 8
  %0 = load ptr, ptr %__functor.addr, align 8
  %1 = load ptr, ptr %__f.addr, align 8
  invoke void @"_ZNSt14_Function_base13_Base_managerIZNK8facebook5velox6memory15MemoryReclaimer16reclaimableBytesERKNS3_10MemoryPoolERmE3$_0E9_M_createIS9_EEvRSt9_Any_dataOT_St17integral_constantIbLb1EE"(ptr noundef nonnull align 8 dereferenceable(16) %0, ptr noundef nonnull align 8 dereferenceable(16) %1)
          to label %invoke.cont unwind label %terminate.lpad

invoke.cont:                                      ; preds = %entry
  ret void

terminate.lpad:                                   ; preds = %entry
  %2 = landingpad { ptr, i32 }
          catch ptr null
  %3 = extractvalue { ptr, i32 } %2, 0
  call void @__clang_call_terminate(ptr %3) #21
  unreachable
}

; Function Attrs: mustprogress nounwind uwtable
define internal noundef zeroext i1 @"_ZNSt14_Function_base13_Base_managerIZNK8facebook5velox6memory15MemoryReclaimer16reclaimableBytesERKNS3_10MemoryPoolERmE3$_0E21_M_not_empty_functionIS9_EEbRKT_"(ptr noundef nonnull align 8 dereferenceable(16) %0) #2 align 2 {
entry:
  %.addr = alloca ptr, align 8
  store ptr %0, ptr %.addr, align 8
  ret i1 true
}

; Function Attrs: mustprogress nounwind uwtable
define linkonce_odr void @_ZNSt14_Function_baseC2Ev(ptr noundef nonnull align 8 dereferenceable(24) %this) unnamed_addr #2 comdat align 2 {
entry:
  %this.addr = alloca ptr, align 8
  store ptr %this, ptr %this.addr, align 8
  %this1 = load ptr, ptr %this.addr, align 8
  %_M_functor = getelementptr inbounds %"class.std::_Function_base", ptr %this1, i32 0, i32 0
  store ptr null, ptr %_M_functor, align 8
  %_M_manager = getelementptr inbounds %"class.std::_Function_base", ptr %this1, i32 0, i32 1
  store ptr null, ptr %_M_manager, align 8
  ret void
}

; Function Attrs: mustprogress nounwind uwtable
define linkonce_odr void @_ZNSt8functionIFbPN8facebook5velox6memory10MemoryPoolEEED2Ev(ptr noundef nonnull align 8 dereferenceable(32) %this) unnamed_addr #2 comdat align 2 {
entry:
  %this.addr = alloca ptr, align 8
  store ptr %this, ptr %this.addr, align 8
  %this1 = load ptr, ptr %this.addr, align 8
  call void @_ZNSt14_Function_baseD2Ev(ptr noundef nonnull align 8 dereferenceable(24) %this1) #9
  ret void
}

; Function Attrs: mustprogress nounwind uwtable
define internal void @"_ZNSt8functionIFbPN8facebook5velox6memory10MemoryPoolEEEC2IZNKS2_15MemoryReclaimer16reclaimableBytesERKS3_RmE3$_0vEEOT_"(ptr noundef nonnull align 8 dereferenceable(32) %this, ptr noundef nonnull align 8 dereferenceable(16) %__f) unnamed_addr #2 align 2 {
entry:
  %this.addr = alloca ptr, align 8
  %__f.addr = alloca ptr, align 8
  store ptr %this, ptr %this.addr, align 8
  store ptr %__f, ptr %__f.addr, align 8
  %this1 = load ptr, ptr %this.addr, align 8
  %0 = getelementptr inbounds i8, ptr %this1, i64 0
  call void @llvm.memset.p0.i64(ptr align 8 %0, i8 0, i64 24, i1 false)
  call void @_ZNSt14_Function_baseC2Ev(ptr noundef nonnull align 8 dereferenceable(24) %this1) #9
  %_M_invoker = getelementptr inbounds %"class.std::function.44", ptr %this1, i32 0, i32 1
  store ptr null, ptr %_M_invoker, align 8
  %1 = load ptr, ptr %__f.addr, align 8
  %call = call noundef zeroext i1 @"_ZNSt14_Function_base13_Base_managerIZNK8facebook5velox6memory15MemoryReclaimer16reclaimableBytesERKNS3_10MemoryPoolERmE3$_0E21_M_not_empty_functionIS9_EEbRKT_"(ptr noundef nonnull align 8 dereferenceable(16) %1) #9
  br i1 %call, label %if.then, label %if.end

if.then:                                          ; preds = %entry
  %_M_functor = getelementptr inbounds %"class.std::_Function_base", ptr %this1, i32 0, i32 0
  %2 = load ptr, ptr %__f.addr, align 8
  call void @"_ZNSt14_Function_base13_Base_managerIZNK8facebook5velox6memory15MemoryReclaimer16reclaimableBytesERKNS3_10MemoryPoolERmE3$_0E15_M_init_functorIS9_EEvRSt9_Any_dataOT_"(ptr noundef nonnull align 8 dereferenceable(16) %_M_functor, ptr noundef nonnull align 8 dereferenceable(16) %2) #9
  %_M_invoker2 = getelementptr inbounds %"class.std::function.44", ptr %this1, i32 0, i32 1
  store ptr @"_ZNSt17_Function_handlerIFbPN8facebook5velox6memory10MemoryPoolEEZNKS2_15MemoryReclaimer16reclaimableBytesERKS3_RmE3$_0E9_M_invokeERKSt9_Any_dataOS4_", ptr %_M_invoker2, align 8
  %_M_manager = getelementptr inbounds %"class.std::_Function_base", ptr %this1, i32 0, i32 1
  store ptr @"_ZNSt17_Function_handlerIFbPN8facebook5velox6memory10MemoryPoolEEZNKS2_15MemoryReclaimer16reclaimableBytesERKS3_RmE3$_0E10_M_managerERSt9_Any_dataRKSC_St18_Manager_operation", ptr %_M_manager, align 8
  br label %if.end

if.end:                                           ; preds = %if.then, %entry
  ret void
}

; Function Attrs: mustprogress uwtable
define noundef zeroext i1 @_ZNK8facebook5velox6memory15MemoryReclaimer16reclaimableBytesERKNS1_10MemoryPoolERm(ptr noundef nonnull align 8 dereferenceable(8) %this, ptr noundef nonnull align 8 dereferenceable(168) %pool, ptr noundef nonnull align 8 dereferenceable(8) %reclaimableBytes) unnamed_addr #0 align 2 personality ptr @__gxx_personality_v0 {
entry:
  %retval = alloca i1, align 1
  %this.addr = alloca ptr, align 8
  %pool.addr = alloca ptr, align 8
  %reclaimableBytes.addr = alloca ptr, align 8
  %reclaimable = alloca i8, align 1
  %ref.tmp = alloca %"class.std::function.44", align 8
  %ref.tmp2 = alloca %class.anon, align 8
  %exn.slot = alloca ptr, align 8
  %ehselector.slot = alloca i32, align 4
  store ptr %this, ptr %this.addr, align 8
  store ptr %pool, ptr %pool.addr, align 8
  store ptr %reclaimableBytes, ptr %reclaimableBytes.addr, align 8
  %0 = load ptr, ptr %reclaimableBytes.addr, align 8
  store i64 0, ptr %0, align 8
  %1 = load ptr, ptr %pool.addr, align 8
  %vtable = load ptr, ptr %1, align 8
  %vfn = getelementptr inbounds ptr, ptr %vtable, i64 3
  %2 = load ptr, ptr %vfn, align 8
  %call = call noundef i32 %2(ptr noundef nonnull align 8 dereferenceable(168) %1)
  %cmp = icmp eq i32 %call, 0
  br i1 %cmp, label %if.then, label %if.end

if.then:                                          ; preds = %entry
  store i1 false, ptr %retval, align 1
  br label %return

if.end:                                           ; preds = %entry
  store i8 0, ptr %reclaimable, align 1
  %3 = load ptr, ptr %pool.addr, align 8
  %4 = getelementptr inbounds %class.anon, ptr %ref.tmp2, i32 0, i32 0
  store ptr %reclaimable, ptr %4, align 8
  %5 = getelementptr inbounds %class.anon, ptr %ref.tmp2, i32 0, i32 1
  %6 = load ptr, ptr %reclaimableBytes.addr, align 8
  store ptr %6, ptr %5, align 8
  call void @"_ZNSt8functionIFbPN8facebook5velox6memory10MemoryPoolEEEC2IZNKS2_15MemoryReclaimer16reclaimableBytesERKS3_RmE3$_0vEEOT_"(ptr noundef nonnull align 8 dereferenceable(32) %ref.tmp, ptr noundef nonnull align 8 dereferenceable(16) %ref.tmp2) #9
  %vtable3 = load ptr, ptr %3, align 8
  %vfn4 = getelementptr inbounds ptr, ptr %vtable3, i64 10
  %7 = load ptr, ptr %vfn4, align 8
  invoke void %7(ptr noundef nonnull align 8 dereferenceable(168) %3, ptr noundef nonnull align 8 dereferenceable(32) %ref.tmp)
          to label %invoke.cont unwind label %lpad

invoke.cont:                                      ; preds = %if.end
  call void @_ZNSt8functionIFbPN8facebook5velox6memory10MemoryPoolEEED2Ev(ptr noundef nonnull align 8 dereferenceable(32) %ref.tmp) #9
  %8 = load i8, ptr %reclaimable, align 1
  %tobool = trunc i8 %8 to i1
  br i1 %tobool, label %lor.end, label %lor.rhs

lor.rhs:                                          ; preds = %invoke.cont
  %9 = load ptr, ptr %reclaimableBytes.addr, align 8
  %10 = load i64, ptr %9, align 8
  %cmp5 = icmp eq i64 %10, 0
  br label %lor.end

lor.end:                                          ; preds = %lor.rhs, %invoke.cont
  %11 = phi i1 [ true, %invoke.cont ], [ %cmp5, %lor.rhs ]
  %lnot = xor i1 %11, true
  br i1 %lnot, label %if.then6, label %if.end7

if.then6:                                         ; preds = %lor.end
  call void @llvm.trap()
  br label %if.end7

lpad:                                             ; preds = %if.end
  %12 = landingpad { ptr, i32 }
          cleanup
  %13 = extractvalue { ptr, i32 } %12, 0
  store ptr %13, ptr %exn.slot, align 8
  %14 = extractvalue { ptr, i32 } %12, 1
  store i32 %14, ptr %ehselector.slot, align 4
  call void @_ZNSt8functionIFbPN8facebook5velox6memory10MemoryPoolEEED2Ev(ptr noundef nonnull align 8 dereferenceable(32) %ref.tmp) #9
  br label %eh.resume

if.end7:                                          ; preds = %if.then6, %lor.end
  %15 = load i8, ptr %reclaimable, align 1
  %tobool8 = trunc i8 %15 to i1
  store i1 %tobool8, ptr %retval, align 1
  br label %return

return:                                           ; preds = %if.end7, %if.then
  %16 = load i1, ptr %retval, align 1
  ret i1 %16

eh.resume:                                        ; preds = %lpad
  %exn = load ptr, ptr %exn.slot, align 8
  %sel = load i32, ptr %ehselector.slot, align 4
  %lpad.val = insertvalue { ptr, i32 } poison, ptr %exn, 0
  %lpad.val9 = insertvalue { ptr, i32 } %lpad.val, i32 %sel, 1
  resume { ptr, i32 } %lpad.val9
}