; Function Attrs: mustprogress uwtable
define noundef zeroext i1 @_ZNK8facebook5velox6memory15MemoryReclaimer16reclaimableBytesERKNS1_10MemoryPoolERm(ptr nocapture nonnull readnone align 8 %this, ptr noundef nonnull align 8 dereferenceable(168) %pool, ptr noundef nonnull align 8 dereferenceable(8) %reclaimableBytes) unnamed_addr #0 align 2 personality ptr @__gxx_personality_v0 {
entry:
  %reclaimable = alloca i8, align 1
  %ref.tmp = alloca %"class.std::function.44", align 8
  store i64 0, ptr %reclaimableBytes, align 8
  %vtable = load ptr, ptr %pool, align 8
  %vfn = getelementptr inbounds i8, ptr %vtable, i64 24
  %0 = load ptr, ptr %vfn, align 8
  %call = tail call noundef i32 %0(ptr noundef nonnull align 8 dereferenceable(168) %pool)
  %cmp = icmp eq i32 %call, 0
  br i1 %cmp, label %return, label %if.end

if.end:                                           ; preds = %entry
  store i8 0, ptr %reclaimable, align 1
  %_M_manager.i.i = getelementptr inbounds i8, ptr %ref.tmp, i64 16
  %_M_invoker.i = getelementptr inbounds i8, ptr %ref.tmp, i64 24
  store ptr %reclaimable, ptr %ref.tmp, align 8
  %ref.tmp2.sroa.2.0.ref.tmp.sroa_idx = getelementptr inbounds i8, ptr %ref.tmp, i64 8
  store ptr %reclaimableBytes, ptr %ref.tmp2.sroa.2.0.ref.tmp.sroa_idx, align 8
  store ptr @"_ZNSt17_Function_handlerIFbPN8facebook5velox6memory10MemoryPoolEEZNKS2_15MemoryReclaimer16reclaimableBytesERKS3_RmE3$_0E9_M_invokeERKSt9_Any_dataOS4_", ptr %_M_invoker.i, align 8
  store ptr @"_ZNSt17_Function_handlerIFbPN8facebook5velox6memory10MemoryPoolEEZNKS2_15MemoryReclaimer16reclaimableBytesERKS3_RmE3$_0E10_M_managerERSt9_Any_dataRKSC_St18_Manager_operation", ptr %_M_manager.i.i, align 8
  %vtable3 = load ptr, ptr %pool, align 8
  %vfn4 = getelementptr inbounds i8, ptr %vtable3, i64 80
  %1 = load ptr, ptr %vfn4, align 8
  invoke void %1(ptr noundef nonnull align 8 dereferenceable(168) %pool, ptr noundef nonnull align 8 dereferenceable(32) %ref.tmp)
          to label %invoke.cont unwind label %lpad

invoke.cont:                                      ; preds = %if.end
  %2 = load ptr, ptr %_M_manager.i.i, align 8
  %tobool.not.i.i = icmp eq ptr %2, null
  br i1 %tobool.not.i.i, label %_ZNSt8functionIFbPN8facebook5velox6memory10MemoryPoolEEED2Ev.exit, label %if.then.i.i

if.then.i.i:                                      ; preds = %invoke.cont
  %call.i.i = invoke noundef zeroext i1 %2(ptr noundef nonnull align 8 dereferenceable(16) %ref.tmp, ptr noundef nonnull align 8 dereferenceable(16) %ref.tmp, i32 noundef 3)
          to label %_ZNSt8functionIFbPN8facebook5velox6memory10MemoryPoolEEED2Ev.exit unwind label %terminate.lpad.i.i

terminate.lpad.i.i:                               ; preds = %if.then.i.i
  %3 = landingpad { ptr, i32 }
          catch ptr null
  %4 = extractvalue { ptr, i32 } %3, 0
  call void @__clang_call_terminate(ptr %4) #34
  unreachable

_ZNSt8functionIFbPN8facebook5velox6memory10MemoryPoolEEED2Ev.exit: ; preds = %invoke.cont, %if.then.i.i
  %5 = load i8, ptr %reclaimable, align 1
  %6 = and i8 %5, 1
  %tobool.not = icmp eq i8 %6, 0
  %7 = load i64, ptr %reclaimableBytes, align 8
  %cmp5 = icmp ne i64 %7, 0
  %lnot = select i1 %tobool.not, i1 %cmp5, i1 false
  br i1 %lnot, label %if.then6, label %if.end7

if.then6:                                         ; preds = %_ZNSt8functionIFbPN8facebook5velox6memory10MemoryPoolEEED2Ev.exit
  call void @llvm.trap()
  unreachable

lpad:                                             ; preds = %if.end
  %8 = landingpad { ptr, i32 }
          cleanup
  %9 = load ptr, ptr %_M_manager.i.i, align 8
  %tobool.not.i.i6 = icmp eq ptr %9, null
  br i1 %tobool.not.i.i6, label %_ZNSt8functionIFbPN8facebook5velox6memory10MemoryPoolEEED2Ev.exit10, label %if.then.i.i7

if.then.i.i7:                                     ; preds = %lpad
  %call.i.i8 = invoke noundef zeroext i1 %9(ptr noundef nonnull align 8 dereferenceable(16) %ref.tmp, ptr noundef nonnull align 8 dereferenceable(16) %ref.tmp, i32 noundef 3)
          to label %_ZNSt8functionIFbPN8facebook5velox6memory10MemoryPoolEEED2Ev.exit10 unwind label %terminate.lpad.i.i9

terminate.lpad.i.i9:                              ; preds = %if.then.i.i7
  %10 = landingpad { ptr, i32 }
          catch ptr null
  %11 = extractvalue { ptr, i32 } %10, 0
  call void @__clang_call_terminate(ptr %11) #34
  unreachable

_ZNSt8functionIFbPN8facebook5velox6memory10MemoryPoolEEED2Ev.exit10: ; preds = %lpad, %if.then.i.i7
  resume { ptr, i32 } %8

if.end7:                                          ; preds = %_ZNSt8functionIFbPN8facebook5velox6memory10MemoryPoolEEED2Ev.exit
  %tobool8 = icmp ne i8 %6, 0
  br label %return

return:                                           ; preds = %entry, %if.end7
  %retval.0 = phi i1 [ %tobool8, %if.end7 ], [ false, %entry ]
  ret i1 %retval.0
}